; Function Attrs: mustprogress uwtable
define internal void @_ZNK6google8protobuf8compiler3cpp12_GLOBAL__N_114SingularString20GenerateSwappingCodeEPNS0_2io7PrinterE(ptr nocapture noundef nonnull readonly align 8 dereferenceable(104) %this, ptr noundef %p) unnamed_addr #3 align 2 personality ptr @__gxx_personality_v0 {
entry:
  %is_oneof_.i = getelementptr inbounds i8, ptr %this, i64 76
  %0 = load i8, ptr %is_oneof_.i, align 4
  %1 = and i8 %0, 1
  %tobool.i.not = icmp eq i8 %1, 0
  br i1 %tobool.i.not, label %if.end, label %return

if.end:                                           ; preds = %entry
  %is_inlined_.i = getelementptr inbounds i8, ptr %this, i64 72
  %2 = load i8, ptr %is_inlined_.i, align 8
  %3 = and i8 %2, 1
  %tobool.i2.not = icmp eq i8 %3, 0
  br i1 %tobool.i2.not, label %if.then3, label %if.end5

if.then3:                                         ; preds = %if.end
  tail call void @_ZN6google8protobuf2io7Printer4EmitEN4absl12lts_202308024SpanIKNS2_3SubEEESt17basic_string_viewIcSt11char_traitsIcEENS2_14SourceLocationE(ptr noundef nonnull align 8 dereferenceable(256) %p, ptr null, i64 0, i64 85, ptr nonnull @.str.98)
  br label %return

if.end5:                                          ; preds = %if.end
  tail call void @_ZN6google8protobuf2io7Printer4EmitEN4absl12lts_202308024SpanIKNS2_3SubEEESt17basic_string_viewIcSt11char_traitsIcEENS2_14SourceLocationE(ptr noundef nonnull align 8 dereferenceable(256) %p, ptr null, i64 0, i64 350, ptr nonnull @.str.99)
  br label %return

return:                                           ; preds = %entry, %if.end5, %if.then3
  ret void
}